; Function Attrs: mustprogress uwtable
define void @_ZNK6casadi6MXNode12get_nzassignERKNS_2MXES3_(ptr dead_on_unwind noalias writable sret(%"class.casadi::MX") align 8 %0, ptr noundef nonnull align 8 dereferenceable(64) %1, ptr noundef nonnull align 8 dereferenceable(8) %2, ptr noundef nonnull align 8 dereferenceable(8) %3) unnamed_addr #3 align 2 personality ptr @__gxx_personality_v0 {
  %5 = alloca %"class.casadi::MX", align 8
  call void @_ZNK6casadi20SharedObjectInternal16shared_from_thisINS_2MXEEEKT_v(ptr dead_on_unwind nonnull writable sret(%"class.casadi::MX") align 8 %5, ptr noundef nonnull align 8 dereferenceable(24) %1)
  %6 = invoke noalias noundef nonnull dereferenceable(64) ptr @_Znwm(i64 noundef 64) #35
          to label %.noexc unwind label %10

.noexc:                                           ; preds = %4
  invoke void @_ZN6casadi16SetNonzerosParamILb0EEC2ERKNS_2MXES4_S4_(ptr noundef nonnull align 8 dereferenceable(64) %6, ptr noundef nonnull align 8 dereferenceable(8) %2, ptr noundef nonnull align 8 dereferenceable(8) %5, ptr noundef nonnull align 8 dereferenceable(8) %3)
          to label %7 unwind label %8, !noalias !134

7:                                                ; preds = %.noexc
  store ptr getelementptr inbounds ({ [108 x ptr] }, ptr @_ZTVN6casadi22SetNonzerosParamVectorILb0EEE, i64 0, i32 0, i64 2), ptr %6, align 8, !noalias !134
  invoke void @_ZN6casadi2MX6createEPNS_6MXNodeE(ptr dead_on_unwind writable sret(%"class.casadi::MX") align 8 %0, ptr noundef nonnull %6)
          to label %_ZN6casadi16SetNonzerosParamILb0EE6createERKNS_2MXES4_S4_.exit unwind label %10

8:                                                ; preds = %.noexc
  %9 = landingpad { ptr, i32 }
          cleanup
  call void @_ZdlPv(ptr noundef nonnull %6) #32, !noalias !134
  br label %.body

_ZN6casadi16SetNonzerosParamILb0EE6createERKNS_2MXES4_S4_.exit: ; preds = %7
  call void @_ZN6casadi2MXD1Ev(ptr noundef nonnull align 8 dereferenceable(8) %5) #31
  ret void

10:                                               ; preds = %7, %4
  %11 = landingpad { ptr, i32 }
          cleanup
  br label %.body

.body:                                            ; preds = %8, %10
  %eh.lpad-body = phi { ptr, i32 } [ %11, %10 ], [ %9, %8 ]
  call void @_ZN6casadi2MXD1Ev(ptr noundef nonnull align 8 dereferenceable(8) %5) #31
  resume { ptr, i32 } %eh.lpad-body
}